; Function Attrs: nounwind sspstrong uwtable
define hidden i64 @rb_int_bit_length(i64 noundef %0) local_unnamed_addr #2 {
  %2 = and i64 %0, 1
  %.not = icmp eq i64 %2, 0
  br i1 %.not, label %8, label %3

3:                                                ; preds = %1
  %4 = ashr i64 %0, 1
  %.lobit.i = ashr i64 %0, 63
  %spec.select.i = xor i64 %4, %.lobit.i
  %5 = tail call range(i64 0, 65) i64 @llvm.ctlz.i64(i64 %spec.select.i, i1 false)
  %6 = shl nuw nsw i64 %5, 1
  %7 = sub nuw nsw i64 129, %6
  br label %rbimpl_RB_TYPE_P_fastpath.exit.thread

8:                                                ; preds = %1
  %9 = icmp eq i64 %0, 0
  %10 = and i64 %0, 6
  %11 = icmp ne i64 %10, 0
  %12 = or i1 %9, %11
  br i1 %12, label %rbimpl_RB_TYPE_P_fastpath.exit.thread, label %rbimpl_RB_TYPE_P_fastpath.exit

rbimpl_RB_TYPE_P_fastpath.exit:                   ; preds = %8
  %13 = inttoptr i64 %0 to ptr
  %14 = load i64, ptr %13, align 8, !tbaa !11
  %15 = and i64 %14, 31
  %16 = icmp eq i64 %15, 10
  br i1 %16, label %17, label %rbimpl_RB_TYPE_P_fastpath.exit.thread

17:                                               ; preds = %rbimpl_RB_TYPE_P_fastpath.exit
  %18 = tail call i64 @rb_big_bit_length(i64 noundef %0) #26
  br label %rbimpl_RB_TYPE_P_fastpath.exit.thread

rbimpl_RB_TYPE_P_fastpath.exit.thread:            ; preds = %8, %rbimpl_RB_TYPE_P_fastpath.exit, %17, %3
  %.0 = phi i64 [ %7, %3 ], [ %18, %17 ], [ 4, %rbimpl_RB_TYPE_P_fastpath.exit ], [ 4, %8 ]
  ret i64 %.0
}